target datalayout = "e-m:e-p270:32:32-p271:32:32-p272:64:64-i64:64-i128:128-f80:128-n8:16:32:64-S128"
target triple = "x86_64-pc-linux-gnu"

%struct.grep_opt = type { ptr, ptr, ptr, ptr, ptr, ptr, i32, i32, i32, i32, i32, i32, i32, i32, i32, i32, i32, i32, i32, i32, i32, i32, i32, i32, i32, i32, i32, i32, i32, i32, i32, i32, [9 x [75 x i8]], i32, i32, i32, i32, i32, i32, i32, ptr, ptr, ptr }
%struct.grep_expr = type { i32, i32, %union.anon }
%union.anon = type { %struct.anon }
%struct.anon = type { ptr, ptr }

; Function Attrs: nounwind uwtable
define internal i32 @chk_hit_marker(ptr noundef %0) #0 {
  %2 = alloca i32, align 4
  %3 = alloca ptr, align 8
  store ptr %0, ptr %3, align 8, !tbaa !62
  br label %4

4:                                                ; preds = %1, %22
  %5 = load ptr, ptr %3, align 8, !tbaa !62
  %6 = getelementptr inbounds nuw %struct.grep_expr, ptr %5, i32 0, i32 0
  %7 = load i32, ptr %6, align 8, !tbaa !76
  %8 = icmp ne i32 %7, 4
  br i1 %8, label %9, label %13

9:                                                ; preds = %4
  %10 = load ptr, ptr %3, align 8, !tbaa !62
  %11 = getelementptr inbounds nuw %struct.grep_expr, ptr %10, i32 0, i32 1
  %12 = load i32, ptr %11, align 4, !tbaa !133
  store i32 %12, ptr %2, align 4
  br label %27

13:                                               ; preds = %4
  %14 = load ptr, ptr %3, align 8, !tbaa !62
  %15 = getelementptr inbounds nuw %struct.grep_expr, ptr %14, i32 0, i32 2
  %16 = getelementptr inbounds nuw %struct.anon, ptr %15, i32 0, i32 0
  %17 = load ptr, ptr %16, align 8, !tbaa !36
  %18 = getelementptr inbounds nuw %struct.grep_expr, ptr %17, i32 0, i32 1
  %19 = load i32, ptr %18, align 4, !tbaa !133
  %20 = icmp ne i32 %19, 0
  br i1 %20, label %22, label %21

21:                                               ; preds = %13
  store i32 0, ptr %2, align 4
  br label %27

22:                                               ; preds = %13
  %23 = load ptr, ptr %3, align 8, !tbaa !62
  %24 = getelementptr inbounds nuw %struct.grep_expr, ptr %23, i32 0, i32 2
  %25 = getelementptr inbounds nuw %struct.anon, ptr %24, i32 0, i32 1
  %26 = load ptr, ptr %25, align 8, !tbaa !36
  store ptr %26, ptr %3, align 8, !tbaa !62
  br label %4

27:                                               ; preds = %21, %9
  %28 = load i32, ptr %2, align 4
  ret i32 %28
}

; Function Attrs: nounwind uwtable
define internal void @clr_hit_marker(ptr noundef %0) #0 {
  %2 = alloca ptr, align 8
  store ptr %0, ptr %2, align 8, !tbaa !62
  br label %3

3:                                                ; preds = %1, %11
  %4 = load ptr, ptr %2, align 8, !tbaa !62
  %5 = getelementptr inbounds nuw %struct.grep_expr, ptr %4, i32 0, i32 1
  store i32 0, ptr %5, align 4, !tbaa !133
  %6 = load ptr, ptr %2, align 8, !tbaa !62
  %7 = getelementptr inbounds nuw %struct.grep_expr, ptr %6, i32 0, i32 0
  %8 = load i32, ptr %7, align 8, !tbaa !76
  %9 = icmp ne i32 %8, 4
  br i1 %9, label %10, label %11

10:                                               ; preds = %3
  ret void

11:                                               ; preds = %3
  %12 = load ptr, ptr %2, align 8, !tbaa !62
  %13 = getelementptr inbounds nuw %struct.grep_expr, ptr %12, i32 0, i32 2
  %14 = getelementptr inbounds nuw %struct.anon, ptr %13, i32 0, i32 0
  %15 = load ptr, ptr %14, align 8, !tbaa !36
  %16 = getelementptr inbounds nuw %struct.grep_expr, ptr %15, i32 0, i32 1
  store i32 0, ptr %16, align 4, !tbaa !133
  %17 = load ptr, ptr %2, align 8, !tbaa !62
  %18 = getelementptr inbounds nuw %struct.grep_expr, ptr %17, i32 0, i32 2
  %19 = getelementptr inbounds nuw %struct.anon, ptr %18, i32 0, i32 1
  %20 = load ptr, ptr %19, align 8, !tbaa !36
  store ptr %20, ptr %2, align 8, !tbaa !62
  br label %3
}

; Function Attrs: nounwind uwtable
define dso_local i32 @grep_source(ptr noundef %0, ptr noundef %1) #0 {
  %3 = alloca i32, align 4
  %4 = alloca ptr, align 8
  %5 = alloca ptr, align 8
  store ptr %0, ptr %4, align 8, !tbaa !19
  store ptr %1, ptr %5, align 8, !tbaa !85
  %6 = load ptr, ptr %4, align 8, !tbaa !19
  %7 = getelementptr inbounds nuw %struct.grep_opt, ptr %6, i32 0, i32 15
  %8 = load i32, ptr %7, align 4, !tbaa !66
  %9 = icmp ne i32 %8, 0
  br i1 %9, label %19, label %10

10:                                               ; preds = %2
  %11 = load ptr, ptr %4, align 8, !tbaa !19
  %12 = getelementptr inbounds nuw %struct.grep_opt, ptr %11, i32 0, i32 16
  %13 = load i32, ptr %12, align 8, !tbaa !67
  %14 = icmp ne i32 %13, 0
  br i1 %14, label %19, label %15

15:                                               ; preds = %10
  %16 = load ptr, ptr %4, align 8, !tbaa !19
  %17 = load ptr, ptr %5, align 8, !tbaa !85
  %18 = call i32 @grep_source_1(ptr noundef %16, ptr noundef %17, i32 noundef 0)
  store i32 %18, ptr %3, align 4
  br label %54

19:                                               ; preds = %10, %2
  %20 = load ptr, ptr %4, align 8, !tbaa !19
  %21 = getelementptr inbounds nuw %struct.grep_opt, ptr %20, i32 0, i32 4
  %22 = load ptr, ptr %21, align 8, !tbaa !68
  call void @clr_hit_marker(ptr noundef %22)
  %23 = load ptr, ptr %4, align 8, !tbaa !19
  %24 = getelementptr inbounds nuw %struct.grep_opt, ptr %23, i32 0, i32 17
  store i32 0, ptr %24, align 4, !tbaa !87
  %25 = load ptr, ptr %4, align 8, !tbaa !19
  %26 = load ptr, ptr %5, align 8, !tbaa !85
  %27 = call i32 @grep_source_1(ptr noundef %25, ptr noundef %26, i32 noundef 1)
  %28 = load ptr, ptr %4, align 8, !tbaa !19
  %29 = getelementptr inbounds nuw %struct.grep_opt, ptr %28, i32 0, i32 15
  %30 = load i32, ptr %29, align 4, !tbaa !66
  %31 = icmp ne i32 %30, 0
  br i1 %31, label %32, label %39

32:                                               ; preds = %19
  %33 = load ptr, ptr %4, align 8, !tbaa !19
  %34 = getelementptr inbounds nuw %struct.grep_opt, ptr %33, i32 0, i32 4
  %35 = load ptr, ptr %34, align 8, !tbaa !68
  %36 = call i32 @chk_hit_marker(ptr noundef %35)
  %37 = icmp ne i32 %36, 0
  br i1 %37, label %39, label %38

38:                                               ; preds = %32
  store i32 0, ptr %3, align 4
  br label %54

39:                                               ; preds = %32, %19
  %40 = load ptr, ptr %4, align 8, !tbaa !19
  %41 = getelementptr inbounds nuw %struct.grep_opt, ptr %40, i32 0, i32 16
  %42 = load i32, ptr %41, align 8, !tbaa !67
  %43 = icmp ne i32 %42, 0
  br i1 %43, label %44, label %50

44:                                               ; preds = %39
  %45 = load ptr, ptr %4, align 8, !tbaa !19
  %46 = getelementptr inbounds nuw %struct.grep_opt, ptr %45, i32 0, i32 17
  %47 = load i32, ptr %46, align 4, !tbaa !87
  %48 = icmp ne i32 %47, 0
  br i1 %48, label %49, label %50

49:                                               ; preds = %44
  store i32 0, ptr %3, align 4
  br label %54

50:                                               ; preds = %44, %39
  %51 = load ptr, ptr %4, align 8, !tbaa !19
  %52 = load ptr, ptr %5, align 8, !tbaa !85
  %53 = call i32 @grep_source_1(ptr noundef %51, ptr noundef %52, i32 noundef 0)
  store i32 %53, ptr %3, align 4
  br label %54

54:                                               ; preds = %50, %49, %38, %15
  %55 = load i32, ptr %3, align 4
  ret i32 %55
}