; Function Attrs: nounwind uwtable
define dso_local i32 @grep_source(ptr noundef %0, ptr noundef %1) local_unnamed_addr #0 {
  %3 = getelementptr inbounds nuw i8, ptr %0, i64 84
  %4 = load i32, ptr %3, align 4, !tbaa !60
  %.not = icmp eq i32 %4, 0
  br i1 %.not, label %5, label %8

5:                                                ; preds = %2
  %6 = getelementptr inbounds nuw i8, ptr %0, i64 88
  %7 = load i32, ptr %6, align 8, !tbaa !61
  %.not14 = icmp eq i32 %7, 0
  br i1 %.not14, label %chk_hit_marker.exit.thread.sink.split, label %8

8:                                                ; preds = %5, %2
  %9 = getelementptr inbounds nuw i8, ptr %0, i64 32
  %10 = load ptr, ptr %9, align 8, !tbaa !62
  %11 = getelementptr inbounds nuw i8, ptr %10, i64 4
  store i32 0, ptr %11, align 4, !tbaa !74
  %12 = load i32, ptr %10, align 8, !tbaa !55
  %.not4.i = icmp eq i32 %12, 4
  br i1 %.not4.i, label %.lr.ph.i, label %clr_hit_marker.exit

.lr.ph.i:                                         ; preds = %8, %.lr.ph.i
  %.05.i = phi ptr [ %17, %.lr.ph.i ], [ %10, %8 ]
  %13 = getelementptr inbounds nuw i8, ptr %.05.i, i64 8
  %14 = load ptr, ptr %13, align 8, !tbaa !23
  %15 = getelementptr inbounds nuw i8, ptr %14, i64 4
  store i32 0, ptr %15, align 4, !tbaa !74
  %16 = getelementptr inbounds nuw i8, ptr %.05.i, i64 16
  %17 = load ptr, ptr %16, align 8, !tbaa !23
  %18 = getelementptr inbounds nuw i8, ptr %17, i64 4
  store i32 0, ptr %18, align 4, !tbaa !74
  %19 = load i32, ptr %17, align 8, !tbaa !55
  %.not.i = icmp eq i32 %19, 4
  br i1 %.not.i, label %.lr.ph.i, label %clr_hit_marker.exit

clr_hit_marker.exit:                              ; preds = %.lr.ph.i, %8
  %20 = getelementptr inbounds nuw i8, ptr %0, i64 92
  store i32 0, ptr %20, align 4, !tbaa !75
  %21 = tail call fastcc i32 @grep_source_1(ptr noundef %0, ptr noundef %1, i32 noundef 1)
  %22 = load i32, ptr %3, align 4, !tbaa !60
  %.not15 = icmp eq i32 %22, 0
  br i1 %.not15, label %36, label %23

23:                                               ; preds = %clr_hit_marker.exit
  %24 = load ptr, ptr %9, align 8, !tbaa !62
  %25 = load i32, ptr %24, align 8, !tbaa !55
  %.not7.i = icmp eq i32 %25, 4
  br i1 %.not7.i, label %.lr.ph.i19, label %chk_hit_marker.exit

.lr.ph.i19:                                       ; preds = %23, %30
  %.08.i = phi ptr [ %32, %30 ], [ %24, %23 ]
  %26 = getelementptr inbounds nuw i8, ptr %.08.i, i64 8
  %27 = load ptr, ptr %26, align 8, !tbaa !23
  %28 = getelementptr inbounds nuw i8, ptr %27, i64 4
  %29 = load i32, ptr %28, align 4, !tbaa !74
  %.not5.i = icmp eq i32 %29, 0
  br i1 %.not5.i, label %chk_hit_marker.exit.thread, label %30

30:                                               ; preds = %.lr.ph.i19
  %31 = getelementptr inbounds nuw i8, ptr %.08.i, i64 16
  %32 = load ptr, ptr %31, align 8, !tbaa !23
  %33 = load i32, ptr %32, align 8, !tbaa !55
  %.not.i20 = icmp eq i32 %33, 4
  br i1 %.not.i20, label %.lr.ph.i19, label %chk_hit_marker.exit

chk_hit_marker.exit:                              ; preds = %30, %23
  %.0.lcssa.i = phi ptr [ %24, %23 ], [ %32, %30 ]
  %34 = getelementptr inbounds nuw i8, ptr %.0.lcssa.i, i64 4
  %35 = load i32, ptr %34, align 4, !tbaa !74
  %.not16 = icmp eq i32 %35, 0
  br i1 %.not16, label %chk_hit_marker.exit.thread, label %36

36:                                               ; preds = %chk_hit_marker.exit, %clr_hit_marker.exit
  %37 = getelementptr inbounds nuw i8, ptr %0, i64 88
  %38 = load i32, ptr %37, align 8, !tbaa !61
  %.not17 = icmp eq i32 %38, 0
  br i1 %.not17, label %chk_hit_marker.exit.thread.sink.split, label %39

39:                                               ; preds = %36
  %40 = load i32, ptr %20, align 4, !tbaa !75
  %.not18 = icmp eq i32 %40, 0
  br i1 %.not18, label %chk_hit_marker.exit.thread.sink.split, label %chk_hit_marker.exit.thread

chk_hit_marker.exit.thread.sink.split:            ; preds = %36, %39, %5
  %41 = tail call fastcc i32 @grep_source_1(ptr noundef nonnull %0, ptr noundef %1, i32 noundef 0)
  br label %chk_hit_marker.exit.thread

chk_hit_marker.exit.thread:                       ; preds = %.lr.ph.i19, %chk_hit_marker.exit.thread.sink.split, %39, %chk_hit_marker.exit
  %.0 = phi i32 [ 0, %chk_hit_marker.exit ], [ 0, %39 ], [ %41, %chk_hit_marker.exit.thread.sink.split ], [ 0, %.lr.ph.i19 ]
  ret i32 %.0
}